target datalayout = "e-m:e-p270:32:32-p271:32:32-p272:64:64-i64:64-i128:128-f80:128-n8:16:32:64-S128"
target triple = "x86_64-pc-linux-gnu"

%struct.anon = type { i32, i32, i32, [4 x i32], i8, i8, i16 }

@.str.74 = private unnamed_addr constant [29 x i8] c"known incorrect sRGB profile\00", align 1
@.str.75 = private unnamed_addr constant [43 x i8] c"out-of-date sRGB profile with no signature\00", align 1
@.str.76 = private unnamed_addr constant [56 x i8] c"Not recognizing known sRGB profile that has been edited\00", align 1

; Function Attrs: nounwind uwtable
define internal i32 @png_compare_ICC_profile_with_sRGB(ptr noalias noundef %0, ptr noundef %1, i64 noundef %2) #0 {
  %4 = alloca i32, align 4
  %5 = alloca ptr, align 8
  %6 = alloca ptr, align 8
  %7 = alloca i64, align 8
  %8 = alloca i32, align 4
  %9 = alloca i32, align 4
  %10 = alloca i64, align 8
  %11 = alloca i32, align 4
  store ptr %0, ptr %5, align 8
  store ptr %1, ptr %6, align 8
  store i64 %2, ptr %7, align 8
  store i32 0, ptr %8, align 4
  store i32 65536, ptr %9, align 4
  store i64 0, ptr %10, align 8
  store i32 0, ptr %11, align 4
  br label %12

12:                                               ; preds = %285, %3
  %13 = load i32, ptr %11, align 4
  %14 = zext i32 %13 to i64
  %15 = icmp ult i64 %14, 7
  br i1 %15, label %16, label %288

16:                                               ; preds = %12
  %17 = load ptr, ptr %6, align 8
  %18 = getelementptr inbounds i8, ptr %17, i64 84
  %19 = load i8, ptr %18, align 1
  %20 = zext i8 %19 to i32
  %21 = shl i32 %20, 24
  %22 = load ptr, ptr %6, align 8
  %23 = getelementptr inbounds i8, ptr %22, i64 84
  %24 = getelementptr inbounds i8, ptr %23, i64 1
  %25 = load i8, ptr %24, align 1
  %26 = zext i8 %25 to i32
  %27 = shl i32 %26, 16
  %28 = add i32 %21, %27
  %29 = load ptr, ptr %6, align 8
  %30 = getelementptr inbounds i8, ptr %29, i64 84
  %31 = getelementptr inbounds i8, ptr %30, i64 2
  %32 = load i8, ptr %31, align 1
  %33 = zext i8 %32 to i32
  %34 = shl i32 %33, 8
  %35 = add i32 %28, %34
  %36 = load ptr, ptr %6, align 8
  %37 = getelementptr inbounds i8, ptr %36, i64 84
  %38 = getelementptr inbounds i8, ptr %37, i64 3
  %39 = load i8, ptr %38, align 1
  %40 = zext i8 %39 to i32
  %41 = add i32 %35, %40
  %42 = load i32, ptr %11, align 4
  %43 = zext i32 %42 to i64
  %44 = getelementptr inbounds [7 x %struct.anon], ptr @png_sRGB_checks, i64 0, i64 %43
  %45 = getelementptr inbounds %struct.anon, ptr %44, i32 0, i32 3
  %46 = getelementptr inbounds [4 x i32], ptr %45, i64 0, i64 0
  %47 = load i32, ptr %46, align 4
  %48 = icmp eq i32 %41, %47
  br i1 %48, label %49, label %284

49:                                               ; preds = %16
  %50 = load ptr, ptr %6, align 8
  %51 = getelementptr inbounds i8, ptr %50, i64 88
  %52 = load i8, ptr %51, align 1
  %53 = zext i8 %52 to i32
  %54 = shl i32 %53, 24
  %55 = load ptr, ptr %6, align 8
  %56 = getelementptr inbounds i8, ptr %55, i64 88
  %57 = getelementptr inbounds i8, ptr %56, i64 1
  %58 = load i8, ptr %57, align 1
  %59 = zext i8 %58 to i32
  %60 = shl i32 %59, 16
  %61 = add i32 %54, %60
  %62 = load ptr, ptr %6, align 8
  %63 = getelementptr inbounds i8, ptr %62, i64 88
  %64 = getelementptr inbounds i8, ptr %63, i64 2
  %65 = load i8, ptr %64, align 1
  %66 = zext i8 %65 to i32
  %67 = shl i32 %66, 8
  %68 = add i32 %61, %67
  %69 = load ptr, ptr %6, align 8
  %70 = getelementptr inbounds i8, ptr %69, i64 88
  %71 = getelementptr inbounds i8, ptr %70, i64 3
  %72 = load i8, ptr %71, align 1
  %73 = zext i8 %72 to i32
  %74 = add i32 %68, %73
  %75 = load i32, ptr %11, align 4
  %76 = zext i32 %75 to i64
  %77 = getelementptr inbounds [7 x %struct.anon], ptr @png_sRGB_checks, i64 0, i64 %76
  %78 = getelementptr inbounds %struct.anon, ptr %77, i32 0, i32 3
  %79 = getelementptr inbounds [4 x i32], ptr %78, i64 0, i64 1
  %80 = load i32, ptr %79, align 4
  %81 = icmp eq i32 %74, %80
  br i1 %81, label %82, label %284

82:                                               ; preds = %49
  %83 = load ptr, ptr %6, align 8
  %84 = getelementptr inbounds i8, ptr %83, i64 92
  %85 = load i8, ptr %84, align 1
  %86 = zext i8 %85 to i32
  %87 = shl i32 %86, 24
  %88 = load ptr, ptr %6, align 8
  %89 = getelementptr inbounds i8, ptr %88, i64 92
  %90 = getelementptr inbounds i8, ptr %89, i64 1
  %91 = load i8, ptr %90, align 1
  %92 = zext i8 %91 to i32
  %93 = shl i32 %92, 16
  %94 = add i32 %87, %93
  %95 = load ptr, ptr %6, align 8
  %96 = getelementptr inbounds i8, ptr %95, i64 92
  %97 = getelementptr inbounds i8, ptr %96, i64 2
  %98 = load i8, ptr %97, align 1
  %99 = zext i8 %98 to i32
  %100 = shl i32 %99, 8
  %101 = add i32 %94, %100
  %102 = load ptr, ptr %6, align 8
  %103 = getelementptr inbounds i8, ptr %102, i64 92
  %104 = getelementptr inbounds i8, ptr %103, i64 3
  %105 = load i8, ptr %104, align 1
  %106 = zext i8 %105 to i32
  %107 = add i32 %101, %106
  %108 = load i32, ptr %11, align 4
  %109 = zext i32 %108 to i64
  %110 = getelementptr inbounds [7 x %struct.anon], ptr @png_sRGB_checks, i64 0, i64 %109
  %111 = getelementptr inbounds %struct.anon, ptr %110, i32 0, i32 3
  %112 = getelementptr inbounds [4 x i32], ptr %111, i64 0, i64 2
  %113 = load i32, ptr %112, align 4
  %114 = icmp eq i32 %107, %113
  br i1 %114, label %115, label %284

115:                                              ; preds = %82
  %116 = load ptr, ptr %6, align 8
  %117 = getelementptr inbounds i8, ptr %116, i64 96
  %118 = load i8, ptr %117, align 1
  %119 = zext i8 %118 to i32
  %120 = shl i32 %119, 24
  %121 = load ptr, ptr %6, align 8
  %122 = getelementptr inbounds i8, ptr %121, i64 96
  %123 = getelementptr inbounds i8, ptr %122, i64 1
  %124 = load i8, ptr %123, align 1
  %125 = zext i8 %124 to i32
  %126 = shl i32 %125, 16
  %127 = add i32 %120, %126
  %128 = load ptr, ptr %6, align 8
  %129 = getelementptr inbounds i8, ptr %128, i64 96
  %130 = getelementptr inbounds i8, ptr %129, i64 2
  %131 = load i8, ptr %130, align 1
  %132 = zext i8 %131 to i32
  %133 = shl i32 %132, 8
  %134 = add i32 %127, %133
  %135 = load ptr, ptr %6, align 8
  %136 = getelementptr inbounds i8, ptr %135, i64 96
  %137 = getelementptr inbounds i8, ptr %136, i64 3
  %138 = load i8, ptr %137, align 1
  %139 = zext i8 %138 to i32
  %140 = add i32 %134, %139
  %141 = load i32, ptr %11, align 4
  %142 = zext i32 %141 to i64
  %143 = getelementptr inbounds [7 x %struct.anon], ptr @png_sRGB_checks, i64 0, i64 %142
  %144 = getelementptr inbounds %struct.anon, ptr %143, i32 0, i32 3
  %145 = getelementptr inbounds [4 x i32], ptr %144, i64 0, i64 3
  %146 = load i32, ptr %145, align 4
  %147 = icmp eq i32 %140, %146
  br i1 %147, label %148, label %284

148:                                              ; preds = %115
  %149 = load i32, ptr %8, align 4
  %150 = icmp eq i32 %149, 0
  br i1 %150, label %151, label %198

151:                                              ; preds = %148
  %152 = load ptr, ptr %6, align 8
  %153 = load i8, ptr %152, align 1
  %154 = zext i8 %153 to i32
  %155 = shl i32 %154, 24
  %156 = load ptr, ptr %6, align 8
  %157 = getelementptr inbounds i8, ptr %156, i64 1
  %158 = load i8, ptr %157, align 1
  %159 = zext i8 %158 to i32
  %160 = shl i32 %159, 16
  %161 = add i32 %155, %160
  %162 = load ptr, ptr %6, align 8
  %163 = getelementptr inbounds i8, ptr %162, i64 2
  %164 = load i8, ptr %163, align 1
  %165 = zext i8 %164 to i32
  %166 = shl i32 %165, 8
  %167 = add i32 %161, %166
  %168 = load ptr, ptr %6, align 8
  %169 = getelementptr inbounds i8, ptr %168, i64 3
  %170 = load i8, ptr %169, align 1
  %171 = zext i8 %170 to i32
  %172 = add i32 %167, %171
  store i32 %172, ptr %8, align 4
  %173 = load ptr, ptr %6, align 8
  %174 = getelementptr inbounds i8, ptr %173, i64 64
  %175 = load i8, ptr %174, align 1
  %176 = zext i8 %175 to i32
  %177 = shl i32 %176, 24
  %178 = load ptr, ptr %6, align 8
  %179 = getelementptr inbounds i8, ptr %178, i64 64
  %180 = getelementptr inbounds i8, ptr %179, i64 1
  %181 = load i8, ptr %180, align 1
  %182 = zext i8 %181 to i32
  %183 = shl i32 %182, 16
  %184 = add i32 %177, %183
  %185 = load ptr, ptr %6, align 8
  %186 = getelementptr inbounds i8, ptr %185, i64 64
  %187 = getelementptr inbounds i8, ptr %186, i64 2
  %188 = load i8, ptr %187, align 1
  %189 = zext i8 %188 to i32
  %190 = shl i32 %189, 8
  %191 = add i32 %184, %190
  %192 = load ptr, ptr %6, align 8
  %193 = getelementptr inbounds i8, ptr %192, i64 64
  %194 = getelementptr inbounds i8, ptr %193, i64 3
  %195 = load i8, ptr %194, align 1
  %196 = zext i8 %195 to i32
  %197 = add i32 %191, %196
  store i32 %197, ptr %9, align 4
  br label %198

198:                                              ; preds = %151, %148
  %199 = load i32, ptr %8, align 4
  %200 = load i32, ptr %11, align 4
  %201 = zext i32 %200 to i64
  %202 = getelementptr inbounds [7 x %struct.anon], ptr @png_sRGB_checks, i64 0, i64 %201
  %203 = getelementptr inbounds %struct.anon, ptr %202, i32 0, i32 2
  %204 = load i32, ptr %203, align 8
  %205 = icmp eq i32 %199, %204
  br i1 %205, label %206, label %283

206:                                              ; preds = %198
  %207 = load i32, ptr %9, align 4
  %208 = load i32, ptr %11, align 4
  %209 = zext i32 %208 to i64
  %210 = getelementptr inbounds [7 x %struct.anon], ptr @png_sRGB_checks, i64 0, i64 %209
  %211 = getelementptr inbounds %struct.anon, ptr %210, i32 0, i32 6
  %212 = load i16, ptr %211, align 2
  %213 = zext i16 %212 to i32
  %214 = icmp eq i32 %207, %213
  br i1 %214, label %215, label %283

215:                                              ; preds = %206
  %216 = load i64, ptr %7, align 8
  %217 = icmp eq i64 %216, 0
  br i1 %217, label %218, label %224

218:                                              ; preds = %215
  %219 = call i64 @adler32(i64 noundef 0, ptr noundef null, i32 noundef 0)
  store i64 %219, ptr %7, align 8
  %220 = load i64, ptr %7, align 8
  %221 = load ptr, ptr %6, align 8
  %222 = load i32, ptr %8, align 4
  %223 = call i64 @adler32(i64 noundef %220, ptr noundef %221, i32 noundef %222)
  store i64 %223, ptr %7, align 8
  br label %224

224:                                              ; preds = %218, %215
  %225 = load i64, ptr %7, align 8
  %226 = load i32, ptr %11, align 4
  %227 = zext i32 %226 to i64
  %228 = getelementptr inbounds [7 x %struct.anon], ptr @png_sRGB_checks, i64 0, i64 %227
  %229 = getelementptr inbounds %struct.anon, ptr %228, i32 0, i32 0
  %230 = load i32, ptr %229, align 16
  %231 = zext i32 %230 to i64
  %232 = icmp eq i64 %225, %231
  br i1 %232, label %233, label %281

233:                                              ; preds = %224
  %234 = load i64, ptr %10, align 8
  %235 = icmp eq i64 %234, 0
  br i1 %235, label %236, label %242

236:                                              ; preds = %233
  %237 = call i64 @crc32(i64 noundef 0, ptr noundef null, i32 noundef 0)
  store i64 %237, ptr %10, align 8
  %238 = load i64, ptr %10, align 8
  %239 = load ptr, ptr %6, align 8
  %240 = load i32, ptr %8, align 4
  %241 = call i64 @crc32(i64 noundef %238, ptr noundef %239, i32 noundef %240)
  store i64 %241, ptr %10, align 8
  br label %242

242:                                              ; preds = %236, %233
  %243 = load i64, ptr %10, align 8
  %244 = load i32, ptr %11, align 4
  %245 = zext i32 %244 to i64
  %246 = getelementptr inbounds [7 x %struct.anon], ptr @png_sRGB_checks, i64 0, i64 %245
  %247 = getelementptr inbounds %struct.anon, ptr %246, i32 0, i32 1
  %248 = load i32, ptr %247, align 4
  %249 = zext i32 %248 to i64
  %250 = icmp eq i64 %243, %249
  br i1 %250, label %251, label %280

251:                                              ; preds = %242
  %252 = load i32, ptr %11, align 4
  %253 = zext i32 %252 to i64
  %254 = getelementptr inbounds [7 x %struct.anon], ptr @png_sRGB_checks, i64 0, i64 %253
  %255 = getelementptr inbounds %struct.anon, ptr %254, i32 0, i32 5
  %256 = load i8, ptr %255, align 1
  %257 = zext i8 %256 to i32
  %258 = icmp ne i32 %257, 0
  br i1 %258, label %259, label %261

259:                                              ; preds = %251
  %260 = load ptr, ptr %5, align 8
  call void @png_chunk_report(ptr noundef %260, ptr noundef @.str.74, i32 noundef 2)
  br label %272

261:                                              ; preds = %251
  %262 = load i32, ptr %11, align 4
  %263 = zext i32 %262 to i64
  %264 = getelementptr inbounds [7 x %struct.anon], ptr @png_sRGB_checks, i64 0, i64 %263
  %265 = getelementptr inbounds %struct.anon, ptr %264, i32 0, i32 4
  %266 = load i8, ptr %265, align 4
  %267 = zext i8 %266 to i32
  %268 = icmp eq i32 %267, 0
  br i1 %268, label %269, label %271

269:                                              ; preds = %261
  %270 = load ptr, ptr %5, align 8
  call void @png_chunk_report(ptr noundef %270, ptr noundef @.str.75, i32 noundef 0)
  br label %271

271:                                              ; preds = %269, %261
  br label %272

272:                                              ; preds = %271, %259
  %273 = load i32, ptr %11, align 4
  %274 = zext i32 %273 to i64
  %275 = getelementptr inbounds [7 x %struct.anon], ptr @png_sRGB_checks, i64 0, i64 %274
  %276 = getelementptr inbounds %struct.anon, ptr %275, i32 0, i32 5
  %277 = load i8, ptr %276, align 1
  %278 = zext i8 %277 to i32
  %279 = add nsw i32 1, %278
  store i32 %279, ptr %4, align 4
  br label %289

280:                                              ; preds = %242
  br label %281

281:                                              ; preds = %280, %224
  %282 = load ptr, ptr %5, align 8
  call void @png_chunk_report(ptr noundef %282, ptr noundef @.str.76, i32 noundef 0)
  br label %288

283:                                              ; preds = %206, %198
  br label %284

284:                                              ; preds = %283, %115, %82, %49, %16
  br label %285

285:                                              ; preds = %284
  %286 = load i32, ptr %11, align 4
  %287 = add i32 %286, 1
  store i32 %287, ptr %11, align 4
  br label %12, !llvm.loop !17

288:                                              ; preds = %281, %12
  store i32 0, ptr %4, align 4
  br label %289

289:                                              ; preds = %288, %272
  %290 = load i32, ptr %4, align 4
  ret i32 %290
}

; Function Attrs: nounwind uwtable
define hidden void @png_icc_set_sRGB(ptr noalias noundef %0, ptr noalias noundef %1, ptr noundef %2, i64 noundef %3) #0 {
  %5 = alloca ptr, align 8
  %6 = alloca ptr, align 8
  %7 = alloca ptr, align 8
  %8 = alloca i64, align 8
  store ptr %0, ptr %5, align 8
  store ptr %1, ptr %6, align 8
  store ptr %2, ptr %7, align 8
  store i64 %3, ptr %8, align 8
  %9 = load ptr, ptr %5, align 8
  %10 = load ptr, ptr %7, align 8
  %11 = load i64, ptr %8, align 8
  %12 = call i32 @png_compare_ICC_profile_with_sRGB(ptr noundef %9, ptr noundef %10, i64 noundef %11)
  %13 = icmp ne i32 %12, 0
  br i1 %13, label %14, label %43

14:                                               ; preds = %4
  %15 = load ptr, ptr %5, align 8
  %16 = load ptr, ptr %6, align 8
  %17 = load ptr, ptr %7, align 8
  %18 = getelementptr inbounds i8, ptr %17, i64 64
  %19 = load i8, ptr %18, align 1
  %20 = zext i8 %19 to i32
  %21 = shl i32 %20, 24
  %22 = load ptr, ptr %7, align 8
  %23 = getelementptr inbounds i8, ptr %22, i64 64
  %24 = getelementptr inbounds i8, ptr %23, i64 1
  %25 = load i8, ptr %24, align 1
  %26 = zext i8 %25 to i32
  %27 = shl i32 %26, 16
  %28 = add i32 %21, %27
  %29 = load ptr, ptr %7, align 8
  %30 = getelementptr inbounds i8, ptr %29, i64 64
  %31 = getelementptr inbounds i8, ptr %30, i64 2
  %32 = load i8, ptr %31, align 1
  %33 = zext i8 %32 to i32
  %34 = shl i32 %33, 8
  %35 = add i32 %28, %34
  %36 = load ptr, ptr %7, align 8
  %37 = getelementptr inbounds i8, ptr %36, i64 64
  %38 = getelementptr inbounds i8, ptr %37, i64 3
  %39 = load i8, ptr %38, align 1
  %40 = zext i8 %39 to i32
  %41 = add i32 %35, %40
  %42 = call i32 @png_colorspace_set_sRGB(ptr noundef %15, ptr noundef %16, i32 noundef %41)
  br label %43

43:                                               ; preds = %14, %4
  ret void
}