; Function Attrs: nounwind uwtable
define hidden void @png_icc_set_sRGB(ptr noalias noundef %0, ptr noalias noundef %1, ptr noundef %2, i64 noundef %3) local_unnamed_addr #0 {
  %5 = getelementptr inbounds i8, ptr %2, i64 84
  %6 = load i8, ptr %5, align 1, !noalias !57
  %7 = zext i8 %6 to i32
  %8 = shl nuw i32 %7, 24
  %9 = getelementptr inbounds i8, ptr %2, i64 85
  %10 = load i8, ptr %9, align 1, !noalias !57
  %11 = zext i8 %10 to i32
  %12 = shl nuw nsw i32 %11, 16
  %13 = or disjoint i32 %12, %8
  %14 = getelementptr inbounds i8, ptr %2, i64 86
  %15 = load i8, ptr %14, align 1, !noalias !57
  %16 = zext i8 %15 to i32
  %17 = shl nuw nsw i32 %16, 8
  %18 = or disjoint i32 %13, %17
  %19 = getelementptr inbounds i8, ptr %2, i64 87
  %20 = load i8, ptr %19, align 1, !noalias !57
  %21 = zext i8 %20 to i32
  %22 = or disjoint i32 %18, %21
  %23 = getelementptr inbounds i8, ptr %2, i64 88
  %24 = getelementptr inbounds i8, ptr %2, i64 89
  %25 = getelementptr inbounds i8, ptr %2, i64 90
  %26 = getelementptr inbounds i8, ptr %2, i64 91
  %27 = getelementptr inbounds i8, ptr %2, i64 92
  %28 = getelementptr inbounds i8, ptr %2, i64 93
  %29 = getelementptr inbounds i8, ptr %2, i64 94
  %30 = getelementptr inbounds i8, ptr %2, i64 95
  %31 = getelementptr inbounds i8, ptr %2, i64 96
  %32 = getelementptr inbounds i8, ptr %2, i64 97
  %33 = getelementptr inbounds i8, ptr %2, i64 98
  %34 = getelementptr inbounds i8, ptr %2, i64 99
  %35 = getelementptr inbounds i8, ptr %2, i64 1
  %36 = getelementptr inbounds i8, ptr %2, i64 2
  %37 = getelementptr inbounds i8, ptr %2, i64 3
  %38 = getelementptr inbounds i8, ptr %2, i64 64
  %39 = getelementptr inbounds i8, ptr %2, i64 65
  %40 = getelementptr inbounds i8, ptr %2, i64 66
  %41 = getelementptr inbounds i8, ptr %2, i64 67
  br label %42

42:                                               ; preds = %166, %4
  %indvars.iv.i = phi i64 [ 0, %4 ], [ %indvars.iv.next.i, %166 ]
  %.05463.i = phi i32 [ 65536, %4 ], [ %.2.i, %166 ]
  %.05562.i = phi i32 [ 0, %4 ], [ %.257.i, %166 ]
  %43 = getelementptr inbounds [7 x %struct.anon], ptr @png_sRGB_checks, i64 0, i64 %indvars.iv.i
  %44 = getelementptr inbounds i8, ptr %43, i64 12
  %45 = load i32, ptr %44, align 4, !noalias !57
  %46 = icmp eq i32 %22, %45
  br i1 %46, label %47, label %166

47:                                               ; preds = %42
  %48 = load i8, ptr %23, align 1, !noalias !57
  %49 = zext i8 %48 to i32
  %50 = shl nuw i32 %49, 24
  %51 = load i8, ptr %24, align 1, !noalias !57
  %52 = zext i8 %51 to i32
  %53 = shl nuw nsw i32 %52, 16
  %54 = or disjoint i32 %53, %50
  %55 = load i8, ptr %25, align 1, !noalias !57
  %56 = zext i8 %55 to i32
  %57 = shl nuw nsw i32 %56, 8
  %58 = or disjoint i32 %54, %57
  %59 = load i8, ptr %26, align 1, !noalias !57
  %60 = zext i8 %59 to i32
  %61 = or disjoint i32 %58, %60
  %62 = getelementptr inbounds i8, ptr %43, i64 16
  %63 = load i32, ptr %62, align 16, !noalias !57
  %64 = icmp eq i32 %61, %63
  br i1 %64, label %65, label %166

65:                                               ; preds = %47
  %66 = load i8, ptr %27, align 1, !noalias !57
  %67 = zext i8 %66 to i32
  %68 = shl nuw i32 %67, 24
  %69 = load i8, ptr %28, align 1, !noalias !57
  %70 = zext i8 %69 to i32
  %71 = shl nuw nsw i32 %70, 16
  %72 = or disjoint i32 %71, %68
  %73 = load i8, ptr %29, align 1, !noalias !57
  %74 = zext i8 %73 to i32
  %75 = shl nuw nsw i32 %74, 8
  %76 = or disjoint i32 %72, %75
  %77 = load i8, ptr %30, align 1, !noalias !57
  %78 = zext i8 %77 to i32
  %79 = or disjoint i32 %76, %78
  %80 = getelementptr inbounds i8, ptr %43, i64 20
  %81 = load i32, ptr %80, align 4, !noalias !57
  %82 = icmp eq i32 %79, %81
  br i1 %82, label %83, label %166

83:                                               ; preds = %65
  %84 = load i8, ptr %31, align 1, !noalias !57
  %85 = zext i8 %84 to i32
  %86 = shl nuw i32 %85, 24
  %87 = load i8, ptr %32, align 1, !noalias !57
  %88 = zext i8 %87 to i32
  %89 = shl nuw nsw i32 %88, 16
  %90 = or disjoint i32 %89, %86
  %91 = load i8, ptr %33, align 1, !noalias !57
  %92 = zext i8 %91 to i32
  %93 = shl nuw nsw i32 %92, 8
  %94 = or disjoint i32 %90, %93
  %95 = load i8, ptr %34, align 1, !noalias !57
  %96 = zext i8 %95 to i32
  %97 = or disjoint i32 %94, %96
  %98 = getelementptr inbounds i8, ptr %43, i64 24
  %99 = load i32, ptr %98, align 8, !noalias !57
  %100 = icmp eq i32 %97, %99
  br i1 %100, label %101, label %166

101:                                              ; preds = %83
  %102 = icmp eq i32 %.05562.i, 0
  br i1 %102, label %103, label %132

103:                                              ; preds = %101
  %104 = load i8, ptr %2, align 1, !noalias !57
  %105 = zext i8 %104 to i32
  %106 = shl nuw i32 %105, 24
  %107 = load i8, ptr %35, align 1, !noalias !57
  %108 = zext i8 %107 to i32
  %109 = shl nuw nsw i32 %108, 16
  %110 = or disjoint i32 %109, %106
  %111 = load i8, ptr %36, align 1, !noalias !57
  %112 = zext i8 %111 to i32
  %113 = shl nuw nsw i32 %112, 8
  %114 = or disjoint i32 %110, %113
  %115 = load i8, ptr %37, align 1, !noalias !57
  %116 = zext i8 %115 to i32
  %117 = or disjoint i32 %114, %116
  %118 = load i8, ptr %38, align 1, !noalias !57
  %119 = zext i8 %118 to i32
  %120 = shl nuw i32 %119, 24
  %121 = load i8, ptr %39, align 1, !noalias !57
  %122 = zext i8 %121 to i32
  %123 = shl nuw nsw i32 %122, 16
  %124 = or disjoint i32 %123, %120
  %125 = load i8, ptr %40, align 1, !noalias !57
  %126 = zext i8 %125 to i32
  %127 = shl nuw nsw i32 %126, 8
  %128 = or disjoint i32 %124, %127
  %129 = load i8, ptr %41, align 1, !noalias !57
  %130 = zext i8 %129 to i32
  %131 = or disjoint i32 %128, %130
  br label %132

132:                                              ; preds = %103, %101
  %.156.i = phi i32 [ %117, %103 ], [ %.05562.i, %101 ]
  %.1.i = phi i32 [ %131, %103 ], [ %.05463.i, %101 ]
  %133 = getelementptr inbounds i8, ptr %43, i64 8
  %134 = load i32, ptr %133, align 8, !noalias !57
  %135 = icmp eq i32 %.156.i, %134
  br i1 %135, label %136, label %166

136:                                              ; preds = %132
  %137 = getelementptr inbounds i8, ptr %43, i64 30
  %138 = load i16, ptr %137, align 2, !noalias !57
  %139 = zext i16 %138 to i32
  %140 = icmp eq i32 %.1.i, %139
  br i1 %140, label %141, label %166

141:                                              ; preds = %136
  %142 = icmp eq i64 %3, 0
  br i1 %142, label %143, label %146

143:                                              ; preds = %141
  %144 = tail call i64 @adler32(i64 noundef 0, ptr noundef null, i32 noundef 0) #29, !noalias !57
  %145 = tail call i64 @adler32(i64 noundef %144, ptr noundef nonnull %2, i32 noundef %.156.i) #29, !noalias !57
  br label %146

146:                                              ; preds = %143, %141
  %.058.i = phi i64 [ %145, %143 ], [ %3, %141 ]
  %147 = load i32, ptr %43, align 16, !noalias !57
  %148 = zext i32 %147 to i64
  %149 = icmp eq i64 %.058.i, %148
  br i1 %149, label %150, label %165

150:                                              ; preds = %146
  %151 = tail call i64 @crc32(i64 noundef 0, ptr noundef null, i32 noundef 0) #29, !noalias !57
  %152 = tail call i64 @crc32(i64 noundef %151, ptr noundef nonnull %2, i32 noundef %.156.i) #29, !noalias !57
  %153 = getelementptr inbounds i8, ptr %43, i64 4
  %154 = load i32, ptr %153, align 4, !noalias !57
  %155 = zext i32 %154 to i64
  %156 = icmp eq i64 %152, %155
  br i1 %156, label %157, label %165

157:                                              ; preds = %150
  %158 = getelementptr inbounds i8, ptr %43, i64 29
  %159 = load i8, ptr %158, align 1, !noalias !57
  %.not.i = icmp eq i8 %159, 0
  br i1 %.not.i, label %160, label %png_compare_ICC_profile_with_sRGB.exit

160:                                              ; preds = %157
  %161 = getelementptr inbounds i8, ptr %43, i64 28
  %162 = load i8, ptr %161, align 4, !noalias !57
  %163 = icmp eq i8 %162, 0
  br i1 %163, label %164, label %png_compare_ICC_profile_with_sRGB.exit.thread11

164:                                              ; preds = %160
  tail call void @png_chunk_report(ptr noundef %0, ptr noundef nonnull @.str.75, i32 noundef 0) #29
  br label %png_compare_ICC_profile_with_sRGB.exit.thread11

165:                                              ; preds = %150, %146
  tail call void @png_chunk_report(ptr noundef %0, ptr noundef nonnull @.str.76, i32 noundef 0) #29
  br label %png_compare_ICC_profile_with_sRGB.exit.thread

166:                                              ; preds = %136, %132, %83, %65, %47, %42
  %.257.i = phi i32 [ %.156.i, %136 ], [ %.156.i, %132 ], [ %.05562.i, %83 ], [ %.05562.i, %65 ], [ %.05562.i, %47 ], [ %.05562.i, %42 ]
  %.2.i = phi i32 [ %.1.i, %136 ], [ %.1.i, %132 ], [ %.05463.i, %83 ], [ %.05463.i, %65 ], [ %.05463.i, %47 ], [ %.05463.i, %42 ]
  %indvars.iv.next.i = add nuw nsw i64 %indvars.iv.i, 1
  %exitcond.not.i = icmp eq i64 %indvars.iv.next.i, 7
  br i1 %exitcond.not.i, label %png_compare_ICC_profile_with_sRGB.exit.thread, label %42, !llvm.loop !60

png_compare_ICC_profile_with_sRGB.exit:           ; preds = %157
  tail call void @png_chunk_report(ptr noundef %0, ptr noundef nonnull @.str.74, i32 noundef 2) #29
  br label %png_compare_ICC_profile_with_sRGB.exit.thread11

png_compare_ICC_profile_with_sRGB.exit.thread11:  ; preds = %png_compare_ICC_profile_with_sRGB.exit, %164, %160
  %167 = load i8, ptr %38, align 1
  %168 = zext i8 %167 to i32
  %169 = shl nuw i32 %168, 24
  %170 = load i8, ptr %39, align 1
  %171 = zext i8 %170 to i32
  %172 = shl nuw nsw i32 %171, 16
  %173 = or disjoint i32 %172, %169
  %174 = load i8, ptr %40, align 1
  %175 = zext i8 %174 to i32
  %176 = shl nuw nsw i32 %175, 8
  %177 = or disjoint i32 %173, %176
  %178 = load i8, ptr %41, align 1
  %179 = zext i8 %178 to i32
  %180 = or disjoint i32 %177, %179
  %181 = tail call i32 @png_colorspace_set_sRGB(ptr noundef %0, ptr noundef %1, i32 noundef %180)
  br label %png_compare_ICC_profile_with_sRGB.exit.thread

png_compare_ICC_profile_with_sRGB.exit.thread:    ; preds = %166, %165, %png_compare_ICC_profile_with_sRGB.exit.thread11
  ret void
}